target datalayout = "e-m:e-p270:32:32-p271:32:32-p272:64:64-i64:64-i128:128-f80:128-n8:16:32:64-S128"
target triple = "x86_64-pc-linux-gnu"

%struct.H5O_layout_t = type { i32, i32, ptr, %union.anon, %struct.H5O_storage_t }
%union.anon = type { %struct.H5O_layout_chunk_t }
%struct.H5O_layout_chunk_t = type { i32, i8, i32, [33 x i32], i32, i32, i64, i64, [33 x i64], [33 x i64], [33 x i64], [33 x i64], %union.anon.0 }
%union.anon.0 = type { %struct.H5O_layout_chunk_earray_t }
%struct.H5O_layout_chunk_earray_t = type { %struct.anon.1, i32, [33 x i32], [33 x i64], [33 x i64] }
%struct.anon.1 = type { i8, i8, i8, i8, i8 }
%struct.H5O_storage_t = type { i32, %union.anon.3 }
%union.anon.3 = type { %struct.H5O_storage_virtual_t }
%struct.H5O_storage_virtual_t = type { %struct.H5HG_t, i64, ptr, i64, [32 x i64], i32, i64, i64, i64, i8 }
%struct.H5HG_t = type { i64, i64 }
%struct.H5O_copy_t = type { i8, i8, i8, i8, i8, i8, i8, ptr, i32, i32, ptr, ptr, i8, ptr, ptr, ptr, ptr, ptr, i64 }

@H5O_init_g = external global i8, align 1
@H5_libterm_g = external global i8, align 1
@.str.2 = private unnamed_addr constant [103 x i8] c"generated/home/dtcxzyw/WorkSpace/Projects/compilers/llvm-opt-benchmark/bench/hdf5/hdf5/src/H5Olayout.c\00", align 1
@H5E_OHDR_g = external global i64, align 8
@H5O_layout_ver_bounds = external constant [7 x i32], align 16
@__func__.H5O__layout_pre_copy_file = private unnamed_addr constant [26 x i8] c"H5O__layout_pre_copy_file\00", align 1
@H5E_BADRANGE_g = external global i64, align 8
@.str.47 = private unnamed_addr constant [37 x i8] c"layout message version out of bounds\00", align 1

; Function Attrs: nounwind uwtable
define internal i32 @H5O__layout_pre_copy_file(ptr noundef %0, ptr noundef %1, ptr noundef %2, ptr noundef %3, ptr noundef %4) #0 {
  %6 = alloca ptr, align 8
  %7 = alloca ptr, align 8
  %8 = alloca ptr, align 8
  %9 = alloca ptr, align 8
  %10 = alloca ptr, align 8
  %11 = alloca ptr, align 8
  %12 = alloca i32, align 4
  %13 = alloca i8, align 1
  store ptr %0, ptr %6, align 8, !tbaa !3
  store ptr %1, ptr %7, align 8, !tbaa !20
  store ptr %2, ptr %8, align 8, !tbaa !80
  store ptr %3, ptr %9, align 8, !tbaa !82
  store ptr %4, ptr %10, align 8, !tbaa !20
  call void @llvm.lifetime.start.p0(i64 8, ptr %11) #10
  %14 = load ptr, ptr %7, align 8, !tbaa !20
  store ptr %14, ptr %11, align 8, !tbaa !18
  call void @llvm.lifetime.start.p0(i64 4, ptr %12) #10
  store i32 0, ptr %12, align 4, !tbaa !10
  call void @llvm.lifetime.start.p0(i64 1, ptr %13) #10
  store i8 0, ptr %13, align 1, !tbaa !21
  %15 = load i8, ptr @H5O_init_g, align 1, !tbaa !21, !range !23, !noundef !24
  %16 = trunc i8 %15 to i1
  br i1 %16, label %21, label %17

17:                                               ; preds = %5
  %18 = load i8, ptr @H5_libterm_g, align 1, !tbaa !21, !range !23, !noundef !24
  %19 = trunc i8 %18 to i1
  %20 = xor i1 %19, true
  br label %21

21:                                               ; preds = %17, %5
  %22 = phi i1 [ true, %5 ], [ %20, %17 ]
  %23 = xor i1 %22, true
  %24 = xor i1 %23, true
  %25 = zext i1 %24 to i32
  %26 = sext i32 %25 to i64
  %27 = call i64 @llvm.expect.i64(i64 %26, i64 1)
  %28 = icmp ne i64 %27, 0
  br i1 %28, label %29, label %62

29:                                               ; preds = %21
  %30 = load ptr, ptr %11, align 8, !tbaa !18
  %31 = getelementptr inbounds nuw %struct.H5O_layout_t, ptr %30, i32 0, i32 1
  %32 = load i32, ptr %31, align 4, !tbaa !30
  %33 = load ptr, ptr %9, align 8, !tbaa !82
  %34 = getelementptr inbounds nuw %struct.H5O_copy_t, ptr %33, i32 0, i32 14
  %35 = load ptr, ptr %34, align 8, !tbaa !84
  %36 = call i32 @H5F_get_high_bound(ptr noundef %35)
  %37 = sext i32 %36 to i64
  %38 = getelementptr inbounds [7 x i32], ptr @H5O_layout_ver_bounds, i64 0, i64 %37
  %39 = load i32, ptr %38, align 4, !tbaa !10
  %40 = icmp ugt i32 %32, %39
  br i1 %40, label %41, label %60

41:                                               ; preds = %29
  br label %42

42:                                               ; preds = %41
  br label %43

43:                                               ; preds = %42
  br label %44

44:                                               ; preds = %43
  %45 = load i64, ptr @H5E_OHDR_g, align 8, !tbaa !14
  %46 = load i64, ptr @H5E_BADRANGE_g, align 8, !tbaa !14
  %47 = call i32 (ptr, ptr, i32, i64, i64, ptr, ...) @H5E_printf_stack(ptr noundef @.str.2, ptr noundef @__func__.H5O__layout_pre_copy_file, i32 noundef 1205, i64 noundef %45, i64 noundef %46, ptr noundef @.str.47)
  br label %48

48:                                               ; preds = %44
  br label %49

49:                                               ; preds = %48
  store i8 1, ptr %13, align 1, !tbaa !21
  %50 = load i8, ptr %13, align 1, !tbaa !21, !range !23, !noundef !24
  %51 = trunc i8 %50 to i1
  %52 = zext i1 %51 to i8
  store i8 %52, ptr %13, align 1, !tbaa !21
  br label %53

53:                                               ; preds = %49
  br label %54

54:                                               ; preds = %53
  br label %55

55:                                               ; preds = %54
  store i32 -1, ptr %12, align 4, !tbaa !10
  br label %61

56:                                               ; No predecessors!
  br label %57

57:                                               ; preds = %56
  br label %58

58:                                               ; preds = %57
  br label %59

59:                                               ; preds = %58
  br label %60

60:                                               ; preds = %59, %29
  br label %61

61:                                               ; preds = %60, %55
  br label %62

62:                                               ; preds = %61, %21
  %63 = load i32, ptr %12, align 4, !tbaa !10
  call void @llvm.lifetime.end.p0(i64 1, ptr %13) #10
  call void @llvm.lifetime.end.p0(i64 4, ptr %12) #10
  call void @llvm.lifetime.end.p0(i64 8, ptr %11) #10
  ret i32 %63
}