; Function Attrs: nounwind uwtable
define internal range(i32 -1, 1) i32 @H5O__layout_pre_copy_file(ptr readnone captures(none) %0, ptr noundef readonly captures(none) %1, ptr readnone captures(none) %2, ptr noundef readonly captures(none) %3, ptr readnone captures(none) %4) #0 {
  %6 = load i8, ptr @H5O_init_g, align 1, !tbaa !8, !range !10, !noundef !11
  %7 = trunc nuw i8 %6 to i1
  %8 = load i8, ptr @H5_libterm_g, align 1, !range !10
  %9 = trunc nuw i8 %8 to i1
  %10 = xor i1 %9, true
  %11 = select i1 %7, i1 true, i1 %10
  br i1 %11, label %12, label %26, !prof !12

12:                                               ; preds = %5
  %13 = getelementptr inbounds nuw i8, ptr %1, i64 4
  %14 = load i32, ptr %13, align 4, !tbaa !21
  %15 = getelementptr inbounds nuw i8, ptr %3, i64 56
  %16 = load ptr, ptr %15, align 8, !tbaa !70
  %17 = tail call i32 @H5F_get_high_bound(ptr noundef %16) #12
  %18 = sext i32 %17 to i64
  %19 = getelementptr inbounds [7 x i32], ptr @H5O_layout_ver_bounds, i64 0, i64 %18
  %20 = load i32, ptr %19, align 4, !tbaa !66
  %21 = icmp ugt i32 %14, %20
  br i1 %21, label %22, label %26

22:                                               ; preds = %12
  %23 = load i64, ptr @H5E_OHDR_g, align 8, !tbaa !13
  %24 = load i64, ptr @H5E_BADRANGE_g, align 8, !tbaa !13
  %25 = tail call i32 (ptr, ptr, i32, i64, i64, ptr, ...) @H5E_printf_stack(ptr noundef nonnull @.str.2, ptr noundef nonnull @__func__.H5O__layout_pre_copy_file, i32 noundef 1205, i64 noundef %23, i64 noundef %24, ptr noundef nonnull @.str.47) #12
  br label %26

26:                                               ; preds = %22, %12, %5
  %.0 = phi i32 [ -1, %22 ], [ 0, %12 ], [ 0, %5 ]
  ret i32 %.0
}